target datalayout = "e-m:e-p270:32:32-p271:32:32-p272:64:64-i64:64-i128:128-f80:128-n8:16:32:64-S128"
target triple = "x86_64-pc-linux-gnu"

%struct.job_state_t = type { i64, i64, i32, i64 }

@.str.13 = private unnamed_addr constant [15 x i8] c"cred_context.c\00", align 1
@__func__._job_state_unpack = private unnamed_addr constant [18 x i8] c"_job_state_unpack\00", align 1
@.str.14 = private unnamed_addr constant [54 x i8] c"cred_unpack: job %u ctime:%ld revoked:%ld expires:%ld\00", align 1
@.str.15 = private unnamed_addr constant [35 x i8] c"revoke on job %u has no expiration\00", align 1

; Function Attrs: nounwind uwtable
define internal i32 @_job_state_unpack(ptr noundef %0, i16 noundef zeroext %1, ptr noundef %2) #0 {
  %4 = alloca i32, align 4
  %5 = alloca ptr, align 8
  %6 = alloca i16, align 2
  %7 = alloca ptr, align 8
  %8 = alloca ptr, align 8
  %9 = alloca i32, align 4
  store ptr %0, ptr %5, align 8
  store i16 %1, ptr %6, align 2
  store ptr %2, ptr %7, align 8
  call void @llvm.lifetime.start.p0(i64 8, ptr %8) #7
  %10 = call ptr @slurm_xcalloc(i64 noundef 1, i64 noundef 32, i1 noundef zeroext true, i1 noundef zeroext false, ptr noundef @.str.13, i32 noundef 174, ptr noundef @__func__._job_state_unpack)
  store ptr %10, ptr %8, align 8
  br label %11

11:                                               ; preds = %3
  %12 = load ptr, ptr %8, align 8
  %13 = getelementptr inbounds nuw %struct.job_state_t, ptr %12, i32 0, i32 2
  %14 = load ptr, ptr %7, align 8
  %15 = call i32 @unpack32(ptr noundef %13, ptr noundef %14)
  %16 = icmp ne i32 %15, 0
  br i1 %16, label %17, label %18

17:                                               ; preds = %11
  br label %95

18:                                               ; preds = %11
  br label %19

19:                                               ; preds = %18
  br label %20

20:                                               ; preds = %19
  br label %21

21:                                               ; preds = %20
  %22 = load ptr, ptr %8, align 8
  %23 = getelementptr inbounds nuw %struct.job_state_t, ptr %22, i32 0, i32 3
  %24 = load ptr, ptr %7, align 8
  %25 = call i32 @unpack_time(ptr noundef %23, ptr noundef %24)
  %26 = icmp ne i32 %25, 0
  br i1 %26, label %27, label %28

27:                                               ; preds = %21
  br label %95

28:                                               ; preds = %21
  br label %29

29:                                               ; preds = %28
  br label %30

30:                                               ; preds = %29
  br label %31

31:                                               ; preds = %30
  %32 = load ptr, ptr %8, align 8
  %33 = getelementptr inbounds nuw %struct.job_state_t, ptr %32, i32 0, i32 0
  %34 = load ptr, ptr %7, align 8
  %35 = call i32 @unpack_time(ptr noundef %33, ptr noundef %34)
  %36 = icmp ne i32 %35, 0
  br i1 %36, label %37, label %38

37:                                               ; preds = %31
  br label %95

38:                                               ; preds = %31
  br label %39

39:                                               ; preds = %38
  br label %40

40:                                               ; preds = %39
  br label %41

41:                                               ; preds = %40
  %42 = load ptr, ptr %8, align 8
  %43 = getelementptr inbounds nuw %struct.job_state_t, ptr %42, i32 0, i32 1
  %44 = load ptr, ptr %7, align 8
  %45 = call i32 @unpack_time(ptr noundef %43, ptr noundef %44)
  %46 = icmp ne i32 %45, 0
  br i1 %46, label %47, label %48

47:                                               ; preds = %41
  br label %95

48:                                               ; preds = %41
  br label %49

49:                                               ; preds = %48
  br label %50

50:                                               ; preds = %49
  br label %51

51:                                               ; preds = %50
  br label %52

52:                                               ; preds = %51
  %53 = call i32 @get_log_level()
  %54 = icmp sge i32 %53, 7
  br i1 %54, label %55, label %68

55:                                               ; preds = %52
  %56 = load ptr, ptr %8, align 8
  %57 = getelementptr inbounds nuw %struct.job_state_t, ptr %56, i32 0, i32 2
  %58 = load i32, ptr %57, align 8
  %59 = load ptr, ptr %8, align 8
  %60 = getelementptr inbounds nuw %struct.job_state_t, ptr %59, i32 0, i32 0
  %61 = load i64, ptr %60, align 8
  %62 = load ptr, ptr %8, align 8
  %63 = getelementptr inbounds nuw %struct.job_state_t, ptr %62, i32 0, i32 3
  %64 = load i64, ptr %63, align 8
  %65 = load ptr, ptr %8, align 8
  %66 = getelementptr inbounds nuw %struct.job_state_t, ptr %65, i32 0, i32 1
  %67 = load i64, ptr %66, align 8
  call void (i32, ptr, ...) @log_var(i32 noundef 7, ptr noundef @.str.14, i32 noundef %58, i64 noundef %61, i64 noundef %64, i64 noundef %67)
  br label %68

68:                                               ; preds = %55, %52
  br label %69

69:                                               ; preds = %68
  br label %70

70:                                               ; preds = %69
  br label %71

71:                                               ; preds = %70
  br label %72

72:                                               ; preds = %71
  %73 = load ptr, ptr %8, align 8
  %74 = getelementptr inbounds nuw %struct.job_state_t, ptr %73, i32 0, i32 3
  %75 = load i64, ptr %74, align 8
  %76 = icmp ne i64 %75, 0
  br i1 %76, label %77, label %92

77:                                               ; preds = %72
  %78 = load ptr, ptr %8, align 8
  %79 = getelementptr inbounds nuw %struct.job_state_t, ptr %78, i32 0, i32 1
  %80 = load i64, ptr %79, align 8
  %81 = icmp eq i64 %80, 2147483647
  br i1 %81, label %82, label %92

82:                                               ; preds = %77
  %83 = load ptr, ptr %8, align 8
  %84 = getelementptr inbounds nuw %struct.job_state_t, ptr %83, i32 0, i32 2
  %85 = load i32, ptr %84, align 8
  call void (ptr, ...) @warning(ptr noundef @.str.15, i32 noundef %85)
  %86 = load ptr, ptr %8, align 8
  %87 = getelementptr inbounds nuw %struct.job_state_t, ptr %86, i32 0, i32 3
  %88 = load i64, ptr %87, align 8
  %89 = add nsw i64 %88, 600
  %90 = load ptr, ptr %8, align 8
  %91 = getelementptr inbounds nuw %struct.job_state_t, ptr %90, i32 0, i32 1
  store i64 %89, ptr %91, align 8
  br label %92

92:                                               ; preds = %82, %77, %72
  %93 = load ptr, ptr %8, align 8
  %94 = load ptr, ptr %5, align 8
  store ptr %93, ptr %94, align 8
  store i32 0, ptr %4, align 4
  store i32 1, ptr %9, align 4
  br label %97

95:                                               ; preds = %47, %37, %27, %17
  call void @slurm_xfree(ptr noundef %8)
  %96 = load ptr, ptr %5, align 8
  store ptr null, ptr %96, align 8
  store i32 -1, ptr %4, align 4
  store i32 1, ptr %9, align 4
  br label %97

97:                                               ; preds = %95, %92
  call void @llvm.lifetime.end.p0(i64 8, ptr %8) #7
  %98 = load i32, ptr %4, align 4
  ret i32 %98
}