; Function Attrs: nounwind uwtable
define internal range(i32 -1, 1) i32 @_job_state_unpack(ptr noundef writeonly captures(none) initializes((0, 8)) %0, i16 zeroext %1, ptr noundef %2) #0 {
  %4 = alloca ptr, align 8
  call void @llvm.lifetime.start.p0(i64 8, ptr nonnull %4) #10
  %5 = tail call ptr @slurm_xcalloc(i64 noundef 1, i64 noundef 32, i1 noundef zeroext true, i1 noundef zeroext false, ptr noundef nonnull @.str.13, i32 noundef 174, ptr noundef nonnull @__func__._job_state_unpack) #10
  store ptr %5, ptr %4, align 8
  %6 = getelementptr inbounds nuw i8, ptr %5, i64 16
  %7 = tail call i32 @unpack32(ptr noundef nonnull %6, ptr noundef %2) #10
  %.not = icmp eq i32 %7, 0
  br i1 %.not, label %8, label %33

8:                                                ; preds = %3
  %9 = getelementptr inbounds nuw i8, ptr %5, i64 24
  %10 = tail call i32 @unpack_time(ptr noundef nonnull %9, ptr noundef %2) #10
  %.not6 = icmp eq i32 %10, 0
  br i1 %.not6, label %11, label %33

11:                                               ; preds = %8
  %12 = tail call i32 @unpack_time(ptr noundef nonnull %5, ptr noundef %2) #10
  %.not7 = icmp eq i32 %12, 0
  br i1 %.not7, label %13, label %33

13:                                               ; preds = %11
  %14 = getelementptr inbounds nuw i8, ptr %5, i64 8
  %15 = tail call i32 @unpack_time(ptr noundef nonnull %14, ptr noundef %2) #10
  %.not8 = icmp eq i32 %15, 0
  br i1 %.not8, label %16, label %33

16:                                               ; preds = %13
  %17 = tail call i32 @get_log_level() #10
  %18 = icmp sgt i32 %17, 6
  br i1 %18, label %19, label %24

19:                                               ; preds = %16
  %20 = load i32, ptr %6, align 8
  %21 = load i64, ptr %5, align 8
  %22 = load i64, ptr %9, align 8
  %23 = load i64, ptr %14, align 8
  tail call void (i32, ptr, ...) @log_var(i32 noundef 7, ptr noundef nonnull @.str.14, i32 noundef %20, i64 noundef %21, i64 noundef %22, i64 noundef %23) #10
  br label %24

24:                                               ; preds = %19, %16
  %25 = load i64, ptr %9, align 8
  %.not9 = icmp eq i64 %25, 0
  br i1 %.not9, label %34, label %26

26:                                               ; preds = %24
  %27 = load i64, ptr %14, align 8
  %28 = icmp eq i64 %27, 2147483647
  br i1 %28, label %29, label %34

29:                                               ; preds = %26
  %30 = load i32, ptr %6, align 8
  tail call void (ptr, ...) @warning(ptr noundef nonnull @.str.15, i32 noundef %30) #10
  %31 = load i64, ptr %9, align 8
  %32 = add nsw i64 %31, 600
  store i64 %32, ptr %14, align 8
  br label %34

33:                                               ; preds = %13, %11, %8, %3
  call void @slurm_xfree(ptr noundef nonnull %4) #10
  br label %34

34:                                               ; preds = %24, %26, %29, %33
  %storemerge = phi ptr [ null, %33 ], [ %5, %29 ], [ %5, %26 ], [ %5, %24 ]
  %.0 = phi i32 [ -1, %33 ], [ 0, %29 ], [ 0, %26 ], [ 0, %24 ]
  store ptr %storemerge, ptr %0, align 8
  call void @llvm.lifetime.end.p0(i64 8, ptr nonnull %4) #10
  ret i32 %.0
}